target datalayout = "e-m:e-p270:32:32-p271:32:32-p272:64:64-i64:64-i128:128-f80:128-n8:16:32:64-S128"
target triple = "x86_64-pc-linux-gnu"

@ff_crop_tab = external hidden constant [2304 x i8], align 16

; Function Attrs: nounwind uwtable
define internal void @avg_rv30_tpel8_hvv_lowpass(ptr noundef %0, ptr noundef %1, i32 noundef %2, i32 noundef %3) #3 {
  %5 = alloca ptr, align 8
  %6 = alloca ptr, align 8
  %7 = alloca i32, align 4
  %8 = alloca i32, align 4
  %9 = alloca i32, align 4
  %10 = alloca i32, align 4
  %11 = alloca ptr, align 8
  %12 = alloca i32, align 4
  %13 = alloca i32, align 4
  store ptr %0, ptr %5, align 8, !tbaa !10
  store ptr %1, ptr %6, align 8, !tbaa !10
  store i32 %2, ptr %7, align 4, !tbaa !14
  store i32 %3, ptr %8, align 4, !tbaa !14
  call void @llvm.lifetime.start.p0(i64 4, ptr %9) #4
  store i32 8, ptr %9, align 4, !tbaa !14
  call void @llvm.lifetime.start.p0(i64 4, ptr %10) #4
  store i32 8, ptr %10, align 4, !tbaa !14
  call void @llvm.lifetime.start.p0(i64 8, ptr %11) #4
  store ptr getelementptr inbounds (i8, ptr @ff_crop_tab, i64 1024), ptr %11, align 8, !tbaa !10
  call void @llvm.lifetime.start.p0(i64 4, ptr %12) #4
  call void @llvm.lifetime.start.p0(i64 4, ptr %13) #4
  store i32 0, ptr %13, align 4, !tbaa !14
  br label %14

14:                                               ; preds = %238, %4
  %15 = load i32, ptr %13, align 4, !tbaa !14
  %16 = icmp slt i32 %15, 8
  br i1 %16, label %17, label %241

17:                                               ; preds = %14
  store i32 0, ptr %12, align 4, !tbaa !14
  br label %18

18:                                               ; preds = %226, %17
  %19 = load i32, ptr %12, align 4, !tbaa !14
  %20 = icmp slt i32 %19, 8
  br i1 %20, label %21, label %229

21:                                               ; preds = %18
  %22 = load ptr, ptr %5, align 8, !tbaa !10
  %23 = load i32, ptr %12, align 4, !tbaa !14
  %24 = sext i32 %23 to i64
  %25 = getelementptr inbounds i8, ptr %22, i64 %24
  %26 = load i8, ptr %25, align 1, !tbaa !16
  %27 = zext i8 %26 to i32
  %28 = load ptr, ptr %11, align 8, !tbaa !10
  %29 = load ptr, ptr %6, align 8, !tbaa !10
  %30 = load i32, ptr %8, align 4, !tbaa !14
  %31 = mul nsw i32 %30, -1
  %32 = load i32, ptr %12, align 4, !tbaa !14
  %33 = add nsw i32 %31, %32
  %34 = sub nsw i32 %33, 1
  %35 = sext i32 %34 to i64
  %36 = getelementptr inbounds i8, ptr %29, i64 %35
  %37 = load i8, ptr %36, align 1, !tbaa !16
  %38 = zext i8 %37 to i32
  %39 = load ptr, ptr %6, align 8, !tbaa !10
  %40 = load i32, ptr %8, align 4, !tbaa !14
  %41 = mul nsw i32 %40, -1
  %42 = load i32, ptr %12, align 4, !tbaa !14
  %43 = add nsw i32 %41, %42
  %44 = sext i32 %43 to i64
  %45 = getelementptr inbounds i8, ptr %39, i64 %44
  %46 = load i8, ptr %45, align 1, !tbaa !16
  %47 = zext i8 %46 to i32
  %48 = mul nsw i32 12, %47
  %49 = sub nsw i32 %38, %48
  %50 = load ptr, ptr %6, align 8, !tbaa !10
  %51 = load i32, ptr %8, align 4, !tbaa !14
  %52 = mul nsw i32 %51, -1
  %53 = load i32, ptr %12, align 4, !tbaa !14
  %54 = add nsw i32 %52, %53
  %55 = add nsw i32 %54, 1
  %56 = sext i32 %55 to i64
  %57 = getelementptr inbounds i8, ptr %50, i64 %56
  %58 = load i8, ptr %57, align 1, !tbaa !16
  %59 = zext i8 %58 to i32
  %60 = mul nsw i32 6, %59
  %61 = sub nsw i32 %49, %60
  %62 = load ptr, ptr %6, align 8, !tbaa !10
  %63 = load i32, ptr %8, align 4, !tbaa !14
  %64 = mul nsw i32 %63, -1
  %65 = load i32, ptr %12, align 4, !tbaa !14
  %66 = add nsw i32 %64, %65
  %67 = add nsw i32 %66, 2
  %68 = sext i32 %67 to i64
  %69 = getelementptr inbounds i8, ptr %62, i64 %68
  %70 = load i8, ptr %69, align 1, !tbaa !16
  %71 = zext i8 %70 to i32
  %72 = add nsw i32 %61, %71
  %73 = load ptr, ptr %6, align 8, !tbaa !10
  %74 = load i32, ptr %8, align 4, !tbaa !14
  %75 = mul nsw i32 %74, 0
  %76 = load i32, ptr %12, align 4, !tbaa !14
  %77 = add nsw i32 %75, %76
  %78 = sub nsw i32 %77, 1
  %79 = sext i32 %78 to i64
  %80 = getelementptr inbounds i8, ptr %73, i64 %79
  %81 = load i8, ptr %80, align 1, !tbaa !16
  %82 = zext i8 %81 to i32
  %83 = mul nsw i32 -6, %82
  %84 = add nsw i32 %72, %83
  %85 = load ptr, ptr %6, align 8, !tbaa !10
  %86 = load i32, ptr %8, align 4, !tbaa !14
  %87 = mul nsw i32 %86, 0
  %88 = load i32, ptr %12, align 4, !tbaa !14
  %89 = add nsw i32 %87, %88
  %90 = sext i32 %89 to i64
  %91 = getelementptr inbounds i8, ptr %85, i64 %90
  %92 = load i8, ptr %91, align 1, !tbaa !16
  %93 = zext i8 %92 to i32
  %94 = mul nsw i32 72, %93
  %95 = add nsw i32 %84, %94
  %96 = load ptr, ptr %6, align 8, !tbaa !10
  %97 = load i32, ptr %8, align 4, !tbaa !14
  %98 = mul nsw i32 %97, 0
  %99 = load i32, ptr %12, align 4, !tbaa !14
  %100 = add nsw i32 %98, %99
  %101 = add nsw i32 %100, 1
  %102 = sext i32 %101 to i64
  %103 = getelementptr inbounds i8, ptr %96, i64 %102
  %104 = load i8, ptr %103, align 1, !tbaa !16
  %105 = zext i8 %104 to i32
  %106 = mul nsw i32 36, %105
  %107 = add nsw i32 %95, %106
  %108 = load ptr, ptr %6, align 8, !tbaa !10
  %109 = load i32, ptr %8, align 4, !tbaa !14
  %110 = mul nsw i32 %109, 0
  %111 = load i32, ptr %12, align 4, !tbaa !14
  %112 = add nsw i32 %110, %111
  %113 = add nsw i32 %112, 2
  %114 = sext i32 %113 to i64
  %115 = getelementptr inbounds i8, ptr %108, i64 %114
  %116 = load i8, ptr %115, align 1, !tbaa !16
  %117 = zext i8 %116 to i32
  %118 = mul nsw i32 6, %117
  %119 = sub nsw i32 %107, %118
  %120 = load ptr, ptr %6, align 8, !tbaa !10
  %121 = load i32, ptr %8, align 4, !tbaa !14
  %122 = mul nsw i32 %121, 1
  %123 = load i32, ptr %12, align 4, !tbaa !14
  %124 = add nsw i32 %122, %123
  %125 = sub nsw i32 %124, 1
  %126 = sext i32 %125 to i64
  %127 = getelementptr inbounds i8, ptr %120, i64 %126
  %128 = load i8, ptr %127, align 1, !tbaa !16
  %129 = zext i8 %128 to i32
  %130 = mul nsw i32 -12, %129
  %131 = add nsw i32 %119, %130
  %132 = load ptr, ptr %6, align 8, !tbaa !10
  %133 = load i32, ptr %8, align 4, !tbaa !14
  %134 = mul nsw i32 %133, 1
  %135 = load i32, ptr %12, align 4, !tbaa !14
  %136 = add nsw i32 %134, %135
  %137 = sext i32 %136 to i64
  %138 = getelementptr inbounds i8, ptr %132, i64 %137
  %139 = load i8, ptr %138, align 1, !tbaa !16
  %140 = zext i8 %139 to i32
  %141 = mul nsw i32 144, %140
  %142 = add nsw i32 %131, %141
  %143 = load ptr, ptr %6, align 8, !tbaa !10
  %144 = load i32, ptr %8, align 4, !tbaa !14
  %145 = mul nsw i32 %144, 1
  %146 = load i32, ptr %12, align 4, !tbaa !14
  %147 = add nsw i32 %145, %146
  %148 = add nsw i32 %147, 1
  %149 = sext i32 %148 to i64
  %150 = getelementptr inbounds i8, ptr %143, i64 %149
  %151 = load i8, ptr %150, align 1, !tbaa !16
  %152 = zext i8 %151 to i32
  %153 = mul nsw i32 72, %152
  %154 = add nsw i32 %142, %153
  %155 = load ptr, ptr %6, align 8, !tbaa !10
  %156 = load i32, ptr %8, align 4, !tbaa !14
  %157 = mul nsw i32 %156, 1
  %158 = load i32, ptr %12, align 4, !tbaa !14
  %159 = add nsw i32 %157, %158
  %160 = add nsw i32 %159, 2
  %161 = sext i32 %160 to i64
  %162 = getelementptr inbounds i8, ptr %155, i64 %161
  %163 = load i8, ptr %162, align 1, !tbaa !16
  %164 = zext i8 %163 to i32
  %165 = mul nsw i32 12, %164
  %166 = sub nsw i32 %154, %165
  %167 = load ptr, ptr %6, align 8, !tbaa !10
  %168 = load i32, ptr %8, align 4, !tbaa !14
  %169 = mul nsw i32 %168, 2
  %170 = load i32, ptr %12, align 4, !tbaa !14
  %171 = add nsw i32 %169, %170
  %172 = sub nsw i32 %171, 1
  %173 = sext i32 %172 to i64
  %174 = getelementptr inbounds i8, ptr %167, i64 %173
  %175 = load i8, ptr %174, align 1, !tbaa !16
  %176 = zext i8 %175 to i32
  %177 = add nsw i32 %166, %176
  %178 = load ptr, ptr %6, align 8, !tbaa !10
  %179 = load i32, ptr %8, align 4, !tbaa !14
  %180 = mul nsw i32 %179, 2
  %181 = load i32, ptr %12, align 4, !tbaa !14
  %182 = add nsw i32 %180, %181
  %183 = sext i32 %182 to i64
  %184 = getelementptr inbounds i8, ptr %178, i64 %183
  %185 = load i8, ptr %184, align 1, !tbaa !16
  %186 = zext i8 %185 to i32
  %187 = mul nsw i32 12, %186
  %188 = sub nsw i32 %177, %187
  %189 = load ptr, ptr %6, align 8, !tbaa !10
  %190 = load i32, ptr %8, align 4, !tbaa !14
  %191 = mul nsw i32 %190, 2
  %192 = load i32, ptr %12, align 4, !tbaa !14
  %193 = add nsw i32 %191, %192
  %194 = add nsw i32 %193, 1
  %195 = sext i32 %194 to i64
  %196 = getelementptr inbounds i8, ptr %189, i64 %195
  %197 = load i8, ptr %196, align 1, !tbaa !16
  %198 = zext i8 %197 to i32
  %199 = mul nsw i32 6, %198
  %200 = sub nsw i32 %188, %199
  %201 = load ptr, ptr %6, align 8, !tbaa !10
  %202 = load i32, ptr %8, align 4, !tbaa !14
  %203 = mul nsw i32 %202, 2
  %204 = load i32, ptr %12, align 4, !tbaa !14
  %205 = add nsw i32 %203, %204
  %206 = add nsw i32 %205, 2
  %207 = sext i32 %206 to i64
  %208 = getelementptr inbounds i8, ptr %201, i64 %207
  %209 = load i8, ptr %208, align 1, !tbaa !16
  %210 = zext i8 %209 to i32
  %211 = add nsw i32 %200, %210
  %212 = add nsw i32 %211, 128
  %213 = ashr i32 %212, 8
  %214 = sext i32 %213 to i64
  %215 = getelementptr inbounds i8, ptr %28, i64 %214
  %216 = load i8, ptr %215, align 1, !tbaa !16
  %217 = zext i8 %216 to i32
  %218 = add nsw i32 %27, %217
  %219 = add nsw i32 %218, 1
  %220 = ashr i32 %219, 1
  %221 = trunc i32 %220 to i8
  %222 = load ptr, ptr %5, align 8, !tbaa !10
  %223 = load i32, ptr %12, align 4, !tbaa !14
  %224 = sext i32 %223 to i64
  %225 = getelementptr inbounds i8, ptr %222, i64 %224
  store i8 %221, ptr %225, align 1, !tbaa !16
  br label %226

226:                                              ; preds = %21
  %227 = load i32, ptr %12, align 4, !tbaa !14
  %228 = add nsw i32 %227, 1
  store i32 %228, ptr %12, align 4, !tbaa !14
  br label %18, !llvm.loop !34

229:                                              ; preds = %18
  %230 = load i32, ptr %8, align 4, !tbaa !14
  %231 = load ptr, ptr %6, align 8, !tbaa !10
  %232 = sext i32 %230 to i64
  %233 = getelementptr inbounds i8, ptr %231, i64 %232
  store ptr %233, ptr %6, align 8, !tbaa !10
  %234 = load i32, ptr %7, align 4, !tbaa !14
  %235 = load ptr, ptr %5, align 8, !tbaa !10
  %236 = sext i32 %234 to i64
  %237 = getelementptr inbounds i8, ptr %235, i64 %236
  store ptr %237, ptr %5, align 8, !tbaa !10
  br label %238

238:                                              ; preds = %229
  %239 = load i32, ptr %13, align 4, !tbaa !14
  %240 = add nsw i32 %239, 1
  store i32 %240, ptr %13, align 4, !tbaa !14
  br label %14, !llvm.loop !35

241:                                              ; preds = %14
  call void @llvm.lifetime.end.p0(i64 4, ptr %13) #4
  call void @llvm.lifetime.end.p0(i64 4, ptr %12) #4
  call void @llvm.lifetime.end.p0(i64 8, ptr %11) #4
  call void @llvm.lifetime.end.p0(i64 4, ptr %10) #4
  call void @llvm.lifetime.end.p0(i64 4, ptr %9) #4
  ret void
}

; Function Attrs: nounwind uwtable
define internal void @avg_rv30_tpel8_mc12_c(ptr noundef %0, ptr noundef %1, i64 noundef %2) #3 {
  %4 = alloca ptr, align 8
  %5 = alloca ptr, align 8
  %6 = alloca i64, align 8
  store ptr %0, ptr %4, align 8, !tbaa !10
  store ptr %1, ptr %5, align 8, !tbaa !10
  store i64 %2, ptr %6, align 8, !tbaa !12
  %7 = load ptr, ptr %4, align 8, !tbaa !10
  %8 = load ptr, ptr %5, align 8, !tbaa !10
  %9 = load i64, ptr %6, align 8, !tbaa !12
  %10 = trunc i64 %9 to i32
  %11 = load i64, ptr %6, align 8, !tbaa !12
  %12 = trunc i64 %11 to i32
  call void @avg_rv30_tpel8_hvv_lowpass(ptr noundef %7, ptr noundef %8, i32 noundef %10, i32 noundef %12)
  ret void
}