; Function Attrs: nofree norecurse nosync nounwind memory(argmem: readwrite) uwtable
define internal void @avg_rv30_tpel8_mc12_c(ptr noundef captures(none) %0, ptr noundef readonly captures(none) %1, i64 noundef %2) #3 {
  %4 = trunc i64 %2 to i32
  %5 = shl nsw i32 %4, 1
  %sext = shl i64 %2, 32
  %6 = ashr exact i64 %sext, 32
  %7 = sext i32 %5 to i64
  br label %.preheader.i

.preheader.i:                                     ; preds = %79, %3
  %.079.i = phi i32 [ 0, %3 ], [ %81, %79 ]
  %.06178.i = phi ptr [ %0, %3 ], [ %80, %79 ]
  %.06277.i = phi ptr [ %1, %3 ], [ %invariant.gep.i, %79 ]
  %invariant.gep.i = getelementptr i8, ptr %.06277.i, i64 %6
  %invariant.gep82.i = getelementptr i8, ptr %.06277.i, i64 %7
  br label %8

8:                                                ; preds = %8, %.preheader.i
  %indvars.iv.i = phi i64 [ 0, %.preheader.i ], [ %indvars.iv.next.i, %8 ]
  %9 = getelementptr inbounds nuw i8, ptr %.06178.i, i64 %indvars.iv.i
  %10 = load i8, ptr %9, align 1, !tbaa !8
  %11 = zext i8 %10 to i16
  %12 = sub nsw i64 %indvars.iv.i, %6
  %13 = getelementptr i8, ptr %.06277.i, i64 %12
  %14 = getelementptr i8, ptr %13, i64 -1
  %15 = load i8, ptr %14, align 1, !tbaa !8
  %16 = zext i8 %15 to i32
  %17 = load i8, ptr %13, align 1, !tbaa !8
  %18 = zext i8 %17 to i32
  %19 = getelementptr i8, ptr %13, i64 1
  %20 = load i8, ptr %19, align 1, !tbaa !8
  %21 = zext i8 %20 to i32
  %22 = getelementptr i8, ptr %13, i64 2
  %23 = load i8, ptr %22, align 1, !tbaa !8
  %24 = zext i8 %23 to i32
  %25 = getelementptr i8, ptr %.06277.i, i64 %indvars.iv.i
  %26 = getelementptr i8, ptr %25, i64 -1
  %27 = load i8, ptr %26, align 1, !tbaa !8
  %28 = zext i8 %27 to i32
  %29 = load i8, ptr %25, align 1, !tbaa !8
  %30 = zext i8 %29 to i32
  %indvars.iv.next.i = add nuw nsw i64 %indvars.iv.i, 1
  %31 = getelementptr inbounds nuw i8, ptr %.06277.i, i64 %indvars.iv.next.i
  %32 = load i8, ptr %31, align 1, !tbaa !8
  %33 = zext i8 %32 to i32
  %34 = mul nuw nsw i32 %33, 36
  %35 = getelementptr inbounds nuw i8, ptr %25, i64 2
  %36 = load i8, ptr %35, align 1, !tbaa !8
  %37 = zext i8 %36 to i32
  %gep.i = getelementptr i8, ptr %invariant.gep.i, i64 %indvars.iv.i
  %38 = getelementptr i8, ptr %gep.i, i64 -1
  %39 = load i8, ptr %38, align 1, !tbaa !8
  %40 = zext i8 %39 to i32
  %41 = load i8, ptr %gep.i, align 1, !tbaa !8
  %42 = zext i8 %41 to i32
  %43 = mul nuw nsw i32 %42, 144
  %44 = getelementptr i8, ptr %gep.i, i64 1
  %45 = load i8, ptr %44, align 1, !tbaa !8
  %46 = zext i8 %45 to i32
  %47 = getelementptr i8, ptr %gep.i, i64 2
  %48 = load i8, ptr %47, align 1, !tbaa !8
  %49 = zext i8 %48 to i32
  %gep83.i = getelementptr i8, ptr %invariant.gep82.i, i64 %indvars.iv.i
  %50 = getelementptr i8, ptr %gep83.i, i64 -1
  %51 = load i8, ptr %50, align 1, !tbaa !8
  %52 = zext i8 %51 to i32
  %53 = load i8, ptr %gep83.i, align 1, !tbaa !8
  %54 = zext i8 %53 to i32
  %55 = getelementptr i8, ptr %gep83.i, i64 1
  %56 = load i8, ptr %55, align 1, !tbaa !8
  %57 = zext i8 %56 to i32
  %58 = getelementptr i8, ptr %gep83.i, i64 2
  %59 = load i8, ptr %58, align 1, !tbaa !8
  %60 = zext i8 %59 to i32
  %reass.add.i = add nuw nsw i32 %28, %21
  %reass.add68.i = add nuw nsw i32 %reass.add.i, %37
  %reass.add69.i = add nuw nsw i32 %reass.add68.i, %57
  %reass.mul.i = mul nsw i32 %reass.add69.i, -6
  %reass.add70.i = add nuw nsw i32 %40, %18
  %reass.add71.i = add nuw nsw i32 %reass.add70.i, %49
  %reass.add72.i = add nuw nsw i32 %reass.add71.i, %54
  %reass.mul73.i = mul nsw i32 %reass.add72.i, -12
  %reass.add74.i = add nuw nsw i32 %46, %30
  %reass.mul75.i = mul nuw nsw i32 %reass.add74.i, 72
  %61 = add nuw nsw i32 %16, 128
  %62 = add nuw nsw i32 %61, %24
  %63 = add nuw nsw i32 %62, %34
  %64 = add nuw nsw i32 %63, %43
  %65 = add nuw nsw i32 %64, %52
  %66 = add nuw nsw i32 %65, %reass.mul75.i
  %67 = add nuw nsw i32 %66, %60
  %68 = add nsw i32 %67, %reass.mul73.i
  %69 = add nsw i32 %68, %reass.mul.i
  %70 = ashr i32 %69, 8
  %71 = sext i32 %70 to i64
  %72 = getelementptr inbounds i8, ptr getelementptr inbounds nuw (i8, ptr @ff_crop_tab, i64 1024), i64 %71
  %73 = load i8, ptr %72, align 1, !tbaa !8
  %74 = zext i8 %73 to i16
  %75 = add nuw nsw i16 %11, 1
  %76 = add nuw nsw i16 %75, %74
  %77 = lshr i16 %76, 1
  %78 = trunc nuw i16 %77 to i8
  store i8 %78, ptr %9, align 1, !tbaa !8
  %exitcond.not.i = icmp eq i64 %indvars.iv.next.i, 8
  br i1 %exitcond.not.i, label %79, label %8, !llvm.loop !22

79:                                               ; preds = %8
  %80 = getelementptr inbounds i8, ptr %.06178.i, i64 %6
  %81 = add nuw nsw i32 %.079.i, 1
  %exitcond81.not.i = icmp eq i32 %81, 8
  br i1 %exitcond81.not.i, label %avg_rv30_tpel8_hvv_lowpass.exit, label %.preheader.i, !llvm.loop !23

avg_rv30_tpel8_hvv_lowpass.exit:                  ; preds = %79
  ret void
}